target datalayout = "e-m:e-p270:32:32-p271:32:32-p272:64:64-i64:64-i128:128-f80:128-n8:16:32:64-S128"
target triple = "x86_64-unknown-linux-gnu"

%"class.icu_75::UObject" = type { ptr }
%"class.icu_75::Locale" = type <{ %"class.icu_75::UObject", [12 x i8], [6 x i8], [4 x i8], [2 x i8], i32, [4 x i8], ptr, [157 x i8], [3 x i8], ptr, i8, [7 x i8] }>

; Function Attrs: mustprogress uwtable
define noundef ptr @_ZNK6icu_7516LocaleKeyFactory6createERKNS_13ICUServiceKeyEPKNS_10ICUServiceER10UErrorCode(ptr noundef nonnull align 8 dereferenceable(76) %this, ptr noundef nonnull align 8 dereferenceable(72) %key, ptr noundef %service, ptr noundef nonnull align 4 dereferenceable(4) %status) unnamed_addr #1 align 2 personality ptr @__gxx_personality_v0 {
entry:
  %retval = alloca ptr, align 8
  %this.addr = alloca ptr, align 8
  %key.addr = alloca ptr, align 8
  %service.addr = alloca ptr, align 8
  %status.addr = alloca ptr, align 8
  %lkey = alloca ptr, align 8
  %kind = alloca i32, align 4
  %loc = alloca %"class.icu_75::Locale", align 8
  %exn.slot = alloca ptr, align 8
  %ehselector.slot = alloca i32, align 4
  store ptr %this, ptr %this.addr, align 8
  store ptr %key, ptr %key.addr, align 8
  store ptr %service, ptr %service.addr, align 8
  store ptr %status, ptr %status.addr, align 8
  %this1 = load ptr, ptr %this.addr, align 8
  %0 = load ptr, ptr %key.addr, align 8
  %1 = load ptr, ptr %status.addr, align 8
  %vtable = load ptr, ptr %this1, align 8
  %vfn = getelementptr inbounds ptr, ptr %vtable, i64 6
  %2 = load ptr, ptr %vfn, align 8
  %call = call noundef signext i8 %2(ptr noundef nonnull align 8 dereferenceable(76) %this1, ptr noundef nonnull align 8 dereferenceable(72) %0, ptr noundef nonnull align 4 dereferenceable(4) %1)
  %tobool = icmp ne i8 %call, 0
  br i1 %tobool, label %if.then, label %if.end

if.then:                                          ; preds = %entry
  %3 = load ptr, ptr %key.addr, align 8
  store ptr %3, ptr %lkey, align 8
  %4 = load ptr, ptr %lkey, align 8
  %vtable2 = load ptr, ptr %4, align 8
  %vfn3 = getelementptr inbounds ptr, ptr %vtable2, i64 10
  %5 = load ptr, ptr %vfn3, align 8
  %call4 = call noundef i32 %5(ptr noundef nonnull align 8 dereferenceable(272) %4)
  store i32 %call4, ptr %kind, align 4
  call void @_ZN6icu_756LocaleC1Ev(ptr noundef nonnull align 8 dereferenceable(217) %loc)
  %6 = load ptr, ptr %lkey, align 8
  %vtable5 = load ptr, ptr %6, align 8
  %vfn6 = getelementptr inbounds ptr, ptr %vtable5, i64 12
  %7 = load ptr, ptr %vfn6, align 8
  %call7 = invoke noundef nonnull align 8 dereferenceable(217) ptr %7(ptr noundef nonnull align 8 dereferenceable(272) %6, ptr noundef nonnull align 8 dereferenceable(217) %loc)
          to label %invoke.cont unwind label %lpad

invoke.cont:                                      ; preds = %if.then
  %8 = load i32, ptr %kind, align 4
  %9 = load ptr, ptr %service.addr, align 8
  %10 = load ptr, ptr %status.addr, align 8
  %vtable8 = load ptr, ptr %this1, align 8
  %vfn9 = getelementptr inbounds ptr, ptr %vtable8, i64 7
  %11 = load ptr, ptr %vfn9, align 8
  %call11 = invoke noundef ptr %11(ptr noundef nonnull align 8 dereferenceable(76) %this1, ptr noundef nonnull align 8 dereferenceable(217) %loc, i32 noundef %8, ptr noundef %9, ptr noundef nonnull align 4 dereferenceable(4) %10)
          to label %invoke.cont10 unwind label %lpad

invoke.cont10:                                    ; preds = %invoke.cont
  store ptr %call11, ptr %retval, align 8
  call void @_ZN6icu_756LocaleD1Ev(ptr noundef nonnull align 8 dereferenceable(217) %loc) #7
  br label %return

lpad:                                             ; preds = %invoke.cont, %if.then
  %12 = landingpad { ptr, i32 }
          cleanup
  %13 = extractvalue { ptr, i32 } %12, 0
  store ptr %13, ptr %exn.slot, align 8
  %14 = extractvalue { ptr, i32 } %12, 1
  store i32 %14, ptr %ehselector.slot, align 4
  call void @_ZN6icu_756LocaleD1Ev(ptr noundef nonnull align 8 dereferenceable(217) %loc) #7
  br label %eh.resume

if.end:                                           ; preds = %entry
  store ptr null, ptr %retval, align 8
  br label %return

return:                                           ; preds = %if.end, %invoke.cont10
  %15 = load ptr, ptr %retval, align 8
  ret ptr %15

eh.resume:                                        ; preds = %lpad
  %exn = load ptr, ptr %exn.slot, align 8
  %sel = load i32, ptr %ehselector.slot, align 4
  %lpad.val = insertvalue { ptr, i32 } poison, ptr %exn, 0
  %lpad.val12 = insertvalue { ptr, i32 } %lpad.val, i32 %sel, 1
  resume { ptr, i32 } %lpad.val12
}