; Function Attrs: mustprogress uwtable
define noundef ptr @_ZNK6icu_7516LocaleKeyFactory6createERKNS_13ICUServiceKeyEPKNS_10ICUServiceER10UErrorCode(ptr noundef nonnull align 8 dereferenceable(76) %this, ptr noundef nonnull align 8 dereferenceable(72) %key, ptr noundef %service, ptr noundef nonnull align 4 dereferenceable(4) %status) unnamed_addr #1 align 2 personality ptr @__gxx_personality_v0 {
entry:
  %loc = alloca %"class.icu_75::Locale", align 8
  %vtable = load ptr, ptr %this, align 8
  %vfn = getelementptr inbounds i8, ptr %vtable, i64 48
  %0 = load ptr, ptr %vfn, align 8
  %call = tail call noundef signext i8 %0(ptr noundef nonnull align 8 dereferenceable(76) %this, ptr noundef nonnull align 8 dereferenceable(72) %key, ptr noundef nonnull align 4 dereferenceable(4) %status)
  %tobool.not = icmp eq i8 %call, 0
  br i1 %tobool.not, label %return, label %if.then

if.then:                                          ; preds = %entry
  %vtable2 = load ptr, ptr %key, align 8
  %vfn3 = getelementptr inbounds i8, ptr %vtable2, i64 80
  %1 = load ptr, ptr %vfn3, align 8
  %call4 = tail call noundef i32 %1(ptr noundef nonnull align 8 dereferenceable(272) %key)
  call void @_ZN6icu_756LocaleC1Ev(ptr noundef nonnull align 8 dereferenceable(217) %loc)
  %vtable5 = load ptr, ptr %key, align 8
  %vfn6 = getelementptr inbounds i8, ptr %vtable5, i64 96
  %2 = load ptr, ptr %vfn6, align 8
  %call7 = invoke noundef nonnull align 8 dereferenceable(217) ptr %2(ptr noundef nonnull align 8 dereferenceable(272) %key, ptr noundef nonnull align 8 dereferenceable(217) %loc)
          to label %invoke.cont unwind label %lpad

invoke.cont:                                      ; preds = %if.then
  %vtable8 = load ptr, ptr %this, align 8
  %vfn9 = getelementptr inbounds i8, ptr %vtable8, i64 56
  %3 = load ptr, ptr %vfn9, align 8
  %call11 = invoke noundef ptr %3(ptr noundef nonnull align 8 dereferenceable(76) %this, ptr noundef nonnull align 8 dereferenceable(217) %loc, i32 noundef %call4, ptr noundef %service, ptr noundef nonnull align 4 dereferenceable(4) %status)
          to label %invoke.cont10 unwind label %lpad

invoke.cont10:                                    ; preds = %invoke.cont
  call void @_ZN6icu_756LocaleD1Ev(ptr noundef nonnull align 8 dereferenceable(217) %loc) #10
  br label %return

lpad:                                             ; preds = %invoke.cont, %if.then
  %4 = landingpad { ptr, i32 }
          cleanup
  call void @_ZN6icu_756LocaleD1Ev(ptr noundef nonnull align 8 dereferenceable(217) %loc) #10
  resume { ptr, i32 } %4

return:                                           ; preds = %entry, %invoke.cont10
  %retval.0 = phi ptr [ %call11, %invoke.cont10 ], [ null, %entry ]
  ret ptr %retval.0
}